target datalayout = "e-m:e-p270:32:32-p271:32:32-p272:64:64-i64:64-i128:128-f80:128-n8:16:32:64-S128"
target triple = "x86_64-unknown-linux-gnu"

%"class.zmq::raw_decoder_t" = type { %"class.zmq::i_decoder", %"class.zmq::msg_t", %"class.zmq::shared_message_memory_allocator" }
%"class.zmq::i_decoder" = type { ptr }
%"class.zmq::msg_t" = type { %union.anon }
%union.anon = type { %struct.anon }
%struct.anon = type { ptr, [34 x i8], i8, i8, i32, %"union.zmq::msg_t::group_t" }
%"union.zmq::msg_t::group_t" = type { %struct.anon.1 }
%struct.anon.1 = type { i8, ptr }
%"class.zmq::shared_message_memory_allocator" = type { ptr, i64, i64, ptr, i64 }

@stderr = external global ptr, align 8
@.str = private unnamed_addr constant [12 x i8] c"%s (%s:%d)\0A\00", align 1
@.str.1 = private unnamed_addr constant [111 x i8] c"generated/home/dtcxzyw/WorkSpace/Projects/compilers/llvm-opt-benchmark/bench/libzmq/libzmq/src/raw_decoder.cpp\00", align 1

; Function Attrs: mustprogress nounwind uwtable
define linkonce_odr void @_ZN3zmq9i_decoderD2Ev(ptr noundef nonnull align 8 dereferenceable(8) %this) unnamed_addr #1 comdat align 2 {
entry:
  %this.addr = alloca ptr, align 8
  store ptr %this, ptr %this.addr, align 8
  ret void
}

; Function Attrs: mustprogress nounwind uwtable
define void @_ZN3zmq13raw_decoder_tD2Ev(ptr noundef nonnull align 8 dereferenceable(112) %this) unnamed_addr #1 align 2 personality ptr @__gxx_personality_v0 {
entry:
  %this.addr = alloca ptr, align 8
  %rc = alloca i32, align 4
  %errstr = alloca ptr, align 8
  store ptr %this, ptr %this.addr, align 8
  %this1 = load ptr, ptr %this.addr, align 8
  %_in_progress = getelementptr inbounds %"class.zmq::raw_decoder_t", ptr %this1, i32 0, i32 1
  %call = invoke noundef i32 @_ZN3zmq5msg_t5closeEv(ptr noundef nonnull align 8 dereferenceable(64) %_in_progress)
          to label %invoke.cont unwind label %terminate.lpad

invoke.cont:                                      ; preds = %entry
  store i32 %call, ptr %rc, align 4
  br label %do.body

do.body:                                          ; preds = %invoke.cont
  %0 = load i32, ptr %rc, align 4
  %cmp = icmp eq i32 %0, 0
  %lnot = xor i1 %cmp, true
  br i1 %lnot, label %if.then, label %if.end

if.then:                                          ; preds = %do.body
  %call2 = call ptr @__errno_location() #9
  %1 = load i32, ptr %call2, align 4
  %call3 = call ptr @strerror(i32 noundef %1) #8
  store ptr %call3, ptr %errstr, align 8
  %2 = load ptr, ptr @stderr, align 8
  %3 = load ptr, ptr %errstr, align 8
  %call5 = invoke i32 (ptr, ptr, ...) @fprintf(ptr noundef %2, ptr noundef @.str, ptr noundef %3, ptr noundef @.str.1, i32 noundef 19)
          to label %invoke.cont4 unwind label %terminate.lpad

invoke.cont4:                                     ; preds = %if.then
  %4 = load ptr, ptr @stderr, align 8
  %call7 = invoke i32 @fflush(ptr noundef %4)
          to label %invoke.cont6 unwind label %terminate.lpad

invoke.cont6:                                     ; preds = %invoke.cont4
  %5 = load ptr, ptr %errstr, align 8
  invoke void @_ZN3zmq9zmq_abortEPKc(ptr noundef %5)
          to label %invoke.cont8 unwind label %terminate.lpad

invoke.cont8:                                     ; preds = %invoke.cont6
  br label %if.end

if.end:                                           ; preds = %invoke.cont8, %do.body
  br label %do.cond

do.cond:                                          ; preds = %if.end
  br label %do.end

do.end:                                           ; preds = %do.cond
  %_allocator = getelementptr inbounds %"class.zmq::raw_decoder_t", ptr %this1, i32 0, i32 2
  call void @_ZN3zmq31shared_message_memory_allocatorD1Ev(ptr noundef nonnull align 8 dereferenceable(40) %_allocator) #8
  call void @_ZN3zmq9i_decoderD2Ev(ptr noundef nonnull align 8 dereferenceable(8) %this1) #8
  ret void

terminate.lpad:                                   ; preds = %invoke.cont6, %invoke.cont4, %if.then, %entry
  %6 = landingpad { ptr, i32 }
          catch ptr null
  %7 = extractvalue { ptr, i32 } %6, 0
  call void @__clang_call_terminate(ptr %7) #10
  unreachable
}